target datalayout = "e-m:e-p270:32:32-p271:32:32-p272:64:64-i64:64-i128:128-f80:128-n8:16:32:64-S128"
target triple = "x86_64-pc-linux-gnu"

%union.pthread_mutex_t = type { %struct.__pthread_mutex_s }
%struct.__pthread_mutex_s = type { i32, i32, i32, i32, i32, i16, i16, %struct.__pthread_internal_list }
%struct.__pthread_internal_list = type { ptr, ptr }

@bu_ctld_failure = dso_local global i8 0, align 1
@trigger_mutex = internal global %union.pthread_mutex_t zeroinitializer, align 8
@.str.2 = private unnamed_addr constant [29 x i8] c"%s: pthread_mutex_lock(): %m\00", align 1
@.str.3 = private unnamed_addr constant [31 x i8] c"%s: pthread_mutex_unlock(): %m\00", align 1
@__func__.trigger_backup_ctld_fail = private unnamed_addr constant [25 x i8] c"trigger_backup_ctld_fail\00", align 1
@trigger_bu_ctld_fail = internal global i8 0, align 1

; Function Attrs: nounwind uwtable
define dso_local void @trigger_backup_ctld_fail(i32 noundef %0) #0 {
  %2 = alloca i32, align 4
  %3 = alloca i32, align 4
  %4 = alloca i32, align 4
  store i32 %0, ptr %2, align 4
  br label %5

5:                                                ; preds = %1
  call void @llvm.lifetime.start.p0(i64 4, ptr %3) #10
  %6 = call i32 @pthread_mutex_lock(ptr noundef @trigger_mutex) #10
  store i32 %6, ptr %3, align 4
  %7 = load i32, ptr %3, align 4
  %8 = icmp ne i32 %7, 0
  br i1 %8, label %9, label %12

9:                                                ; preds = %5
  %10 = load i32, ptr %3, align 4
  %11 = call ptr @__errno_location() #11
  store i32 %10, ptr %11, align 4
  call void (ptr, ...) @fatal_abort(ptr noundef @.str.2, ptr noundef @__func__.trigger_backup_ctld_fail) #12
  unreachable

12:                                               ; preds = %5
  call void @llvm.lifetime.end.p0(i64 4, ptr %3) #10
  br label %13

13:                                               ; preds = %12
  %14 = load i8, ptr @bu_ctld_failure, align 1
  %15 = zext i8 %14 to i32
  %16 = icmp ne i32 %15, 1
  br i1 %16, label %17, label %18

17:                                               ; preds = %13
  store i8 1, ptr @trigger_bu_ctld_fail, align 1
  store i8 1, ptr @bu_ctld_failure, align 1
  br label %18

18:                                               ; preds = %17, %13
  br label %19

19:                                               ; preds = %18
  call void @llvm.lifetime.start.p0(i64 4, ptr %4) #10
  %20 = call i32 @pthread_mutex_unlock(ptr noundef @trigger_mutex) #10
  store i32 %20, ptr %4, align 4
  %21 = load i32, ptr %4, align 4
  %22 = icmp ne i32 %21, 0
  br i1 %22, label %23, label %26

23:                                               ; preds = %19
  %24 = load i32, ptr %4, align 4
  %25 = call ptr @__errno_location() #11
  store i32 %24, ptr %25, align 4
  call void (ptr, ...) @fatal_abort(ptr noundef @.str.3, ptr noundef @__func__.trigger_backup_ctld_fail) #12
  unreachable

26:                                               ; preds = %19
  call void @llvm.lifetime.end.p0(i64 4, ptr %4) #10
  br label %27

27:                                               ; preds = %26
  ret void
}