; Function Attrs: nounwind uwtable
define dso_local void @trigger_backup_ctld_fail(i32 noundef %0) local_unnamed_addr #0 {
  %2 = tail call i32 @pthread_mutex_lock(ptr noundef nonnull @trigger_mutex) #12
  %.not = icmp eq i32 %2, 0
  br i1 %.not, label %5, label %3

3:                                                ; preds = %1
  %4 = tail call ptr @__errno_location() #13
  store i32 %2, ptr %4, align 4
  tail call void (ptr, ...) @fatal_abort(ptr noundef nonnull @.str.2, ptr noundef nonnull @__func__.trigger_backup_ctld_fail) #14
  unreachable

5:                                                ; preds = %1
  %6 = load i8, ptr @bu_ctld_failure, align 1
  %.not5 = icmp eq i8 %6, 1
  br i1 %.not5, label %8, label %7

7:                                                ; preds = %5
  store i1 true, ptr @trigger_bu_ctld_fail, align 1
  store i8 1, ptr @bu_ctld_failure, align 1
  br label %8

8:                                                ; preds = %5, %7
  %9 = tail call i32 @pthread_mutex_unlock(ptr noundef nonnull @trigger_mutex) #12
  %.not6 = icmp eq i32 %9, 0
  br i1 %.not6, label %12, label %10

10:                                               ; preds = %8
  %11 = tail call ptr @__errno_location() #13
  store i32 %9, ptr %11, align 4
  tail call void (ptr, ...) @fatal_abort(ptr noundef nonnull @.str.3, ptr noundef nonnull @__func__.trigger_backup_ctld_fail) #14
  unreachable

12:                                               ; preds = %8
  ret void
}